; Function Attrs: mustprogress nounwind uwtable
define hidden void @_ZNK14ShenandoahHeap28parallel_heap_region_iterateEP27ShenandoahHeapRegionClosure(ptr nocapture noundef nonnull readonly align 8 dereferenceable(2657) %0, ptr noundef %1) local_unnamed_addr #1 align 2 {
  %3 = alloca %class.ShenandoahParallelHeapRegionTask, align 8
  %4 = getelementptr inbounds i8, ptr %0, i64 544
  %5 = load i64, ptr %4, align 8
  %6 = load i64, ptr @ShenandoahParallelRegionStride, align 8
  %7 = icmp ugt i64 %5, %6
  br i1 %7, label %8, label %18

8:                                                ; preds = %2
  %9 = getelementptr inbounds i8, ptr %3, i64 8
  store ptr @.str.109, ptr %9, align 8
  %10 = getelementptr inbounds i8, ptr %3, i64 16
  %11 = tail call noundef i32 @_ZN4GCId20current_or_undefinedEv() #26
  store i32 %11, ptr %10, align 8
  store ptr getelementptr inbounds inrange(-16, 8) (i8, ptr @_ZTV32ShenandoahParallelHeapRegionTask, i64 16), ptr %3, align 8
  %12 = getelementptr inbounds i8, ptr %3, i64 24
  %13 = load ptr, ptr @_ZN8Universe14_collectedHeapE, align 8
  store ptr %13, ptr %12, align 8
  %14 = getelementptr inbounds i8, ptr %3, i64 32
  store ptr %1, ptr %14, align 8
  %15 = getelementptr inbounds i8, ptr %3, i64 104
  store volatile i64 0, ptr %15, align 8
  %16 = getelementptr inbounds i8, ptr %0, i64 504
  %17 = load ptr, ptr %16, align 8
  call void @_ZN13WorkerThreads8run_taskEP10WorkerTask(ptr noundef nonnull align 8 dereferenceable(120) %17, ptr noundef nonnull %3) #26
  br label %_ZNK14ShenandoahHeap19heap_region_iterateEP27ShenandoahHeapRegionClosure.exit

18:                                               ; preds = %2
  %.not.i = icmp eq i64 %5, 0
  br i1 %.not.i, label %_ZNK14ShenandoahHeap19heap_region_iterateEP27ShenandoahHeapRegionClosure.exit, label %_ZNK14ShenandoahHeap10get_regionEm.exit.lr.ph.i

_ZNK14ShenandoahHeap10get_regionEm.exit.lr.ph.i:  ; preds = %18
  %19 = getelementptr inbounds i8, ptr %0, i64 552
  br label %_ZNK14ShenandoahHeap10get_regionEm.exit.i

_ZNK14ShenandoahHeap10get_regionEm.exit.i:        ; preds = %_ZNK14ShenandoahHeap10get_regionEm.exit.i, %_ZNK14ShenandoahHeap10get_regionEm.exit.lr.ph.i
  %.05.i = phi i64 [ 0, %_ZNK14ShenandoahHeap10get_regionEm.exit.lr.ph.i ], [ %25, %_ZNK14ShenandoahHeap10get_regionEm.exit.i ]
  %20 = load ptr, ptr %19, align 8
  %21 = getelementptr inbounds ptr, ptr %20, i64 %.05.i
  %22 = load ptr, ptr %21, align 8
  %23 = load ptr, ptr %1, align 8
  %24 = load ptr, ptr %23, align 8
  tail call void %24(ptr noundef nonnull align 8 dereferenceable(8) %1, ptr noundef %22) #26
  %25 = add nuw i64 %.05.i, 1
  %26 = load i64, ptr %4, align 8
  %27 = icmp ult i64 %25, %26
  br i1 %27, label %_ZNK14ShenandoahHeap10get_regionEm.exit.i, label %_ZNK14ShenandoahHeap19heap_region_iterateEP27ShenandoahHeapRegionClosure.exit, !llvm.loop !46

_ZNK14ShenandoahHeap19heap_region_iterateEP27ShenandoahHeapRegionClosure.exit: ; preds = %_ZNK14ShenandoahHeap10get_regionEm.exit.i, %18, %8
  ret void
}